; Function Attrs: mustprogress uwtable
define hidden void @_ZN6google8protobuf8internal14WireFormatLite22WriteGroupMaybeToArrayEiRKNS0_11MessageLiteEPNS0_2io17CodedOutputStreamE(i32 noundef %0, ptr noundef nonnull align 8 dereferenceable(16) %1, ptr noundef %2) local_unnamed_addr #3 align 2 {
  %4 = shl i32 %0, 3
  %5 = getelementptr inbounds nuw i8, ptr %2, i64 64
  %6 = load ptr, ptr %5, align 8, !tbaa !20
  %7 = load ptr, ptr %2, align 8, !tbaa !25
  %.not.i.i.i = icmp ult ptr %6, %7
  br i1 %.not.i.i.i, label %_ZN6google8protobuf2io19EpsCopyOutputStream11EnsureSpaceEPh.exit.i.i, label %8, !prof !15

8:                                                ; preds = %3
  %9 = tail call noundef ptr @_ZN6google8protobuf2io19EpsCopyOutputStream19EnsureSpaceFallbackEPh(ptr noundef nonnull align 8 dereferenceable(80) %2, ptr noundef %6)
  br label %_ZN6google8protobuf2io19EpsCopyOutputStream11EnsureSpaceEPh.exit.i.i

_ZN6google8protobuf2io19EpsCopyOutputStream11EnsureSpaceEPh.exit.i.i: ; preds = %8, %3
  %.0.i.i.i = phi ptr [ %9, %8 ], [ %6, %3 ]
  store ptr %.0.i.i.i, ptr %5, align 8, !tbaa !20
  %10 = trunc i32 %4 to i8
  %11 = or disjoint i8 %10, 3
  store i8 %11, ptr %.0.i.i.i, align 1, !tbaa !16
  %12 = icmp ult i32 %4, 128
  br i1 %12, label %13, label %15

13:                                               ; preds = %_ZN6google8protobuf2io19EpsCopyOutputStream11EnsureSpaceEPh.exit.i.i
  %14 = getelementptr inbounds nuw i8, ptr %.0.i.i.i, i64 1
  br label %_ZN6google8protobuf2io17CodedOutputStream8WriteTagEj.exit

15:                                               ; preds = %_ZN6google8protobuf2io19EpsCopyOutputStream11EnsureSpaceEPh.exit.i.i
  %16 = or i8 %10, -125
  store i8 %16, ptr %.0.i.i.i, align 1, !tbaa !16
  %17 = lshr i32 %4, 7
  %18 = trunc i32 %17 to i8
  %19 = getelementptr inbounds nuw i8, ptr %.0.i.i.i, i64 1
  store i8 %18, ptr %19, align 1, !tbaa !16
  %20 = icmp ult i32 %4, 16384
  %21 = getelementptr inbounds nuw i8, ptr %.0.i.i.i, i64 2
  br i1 %20, label %_ZN6google8protobuf2io17CodedOutputStream8WriteTagEj.exit, label %.preheader.i.i.preheader

.preheader.i.i.preheader:                         ; preds = %15
  %scevgep19 = getelementptr i8, ptr %.0.i.i.i, i64 1
  %load_initial20 = load i8, ptr %scevgep19, align 1
  br label %.preheader.i.i

.preheader.i.i:                                   ; preds = %.preheader.i.i.preheader, %.preheader.i.i
  %store_forwarded21 = phi i8 [ %load_initial20, %.preheader.i.i.preheader ], [ %25, %.preheader.i.i ]
  %.018.i.i.i.i = phi i32 [ %17, %.preheader.i.i.preheader ], [ %24, %.preheader.i.i ]
  %.0.i.i.i.i = phi ptr [ %21, %.preheader.i.i.preheader ], [ %26, %.preheader.i.i ]
  %22 = getelementptr inbounds i8, ptr %.0.i.i.i.i, i64 -1
  %23 = or i8 %store_forwarded21, -128
  store i8 %23, ptr %22, align 1, !tbaa !16
  %24 = lshr i32 %.018.i.i.i.i, 7
  %25 = trunc i32 %24 to i8
  store i8 %25, ptr %.0.i.i.i.i, align 1, !tbaa !16
  %26 = getelementptr inbounds nuw i8, ptr %.0.i.i.i.i, i64 1
  %27 = icmp samesign ugt i32 %.018.i.i.i.i, 16383
  br i1 %27, label %.preheader.i.i, label %_ZN6google8protobuf2io17CodedOutputStream8WriteTagEj.exit, !llvm.loop !26

_ZN6google8protobuf2io17CodedOutputStream8WriteTagEj.exit: ; preds = %.preheader.i.i, %13, %15
  %.019.i.i.i.i = phi ptr [ %14, %13 ], [ %21, %15 ], [ %26, %.preheader.i.i ]
  store ptr %.019.i.i.i.i, ptr %5, align 8, !tbaa !20
  %28 = load ptr, ptr %1, align 8, !tbaa !48
  %29 = getelementptr inbounds nuw i8, ptr %28, i64 72
  %30 = load ptr, ptr %29, align 8
  %31 = tail call noundef i32 %30(ptr noundef nonnull align 8 dereferenceable(16) %1)
  %32 = load ptr, ptr %5, align 8, !tbaa !20
  %33 = load ptr, ptr %1, align 8, !tbaa !48
  %34 = getelementptr inbounds nuw i8, ptr %33, i64 88
  %35 = load ptr, ptr %34, align 8
  %36 = tail call noundef ptr %35(ptr noundef nonnull align 8 dereferenceable(16) %1, ptr noundef %32, ptr noundef nonnull %2)
  store ptr %36, ptr %5, align 8, !tbaa !20
  %37 = load ptr, ptr %2, align 8, !tbaa !25
  %.not.i.i.i7 = icmp ult ptr %36, %37
  br i1 %.not.i.i.i7, label %_ZN6google8protobuf2io19EpsCopyOutputStream11EnsureSpaceEPh.exit.i.i8, label %38, !prof !15

38:                                               ; preds = %_ZN6google8protobuf2io17CodedOutputStream8WriteTagEj.exit
  %39 = tail call noundef ptr @_ZN6google8protobuf2io19EpsCopyOutputStream19EnsureSpaceFallbackEPh(ptr noundef nonnull align 8 dereferenceable(80) %2, ptr noundef %36)
  br label %_ZN6google8protobuf2io19EpsCopyOutputStream11EnsureSpaceEPh.exit.i.i8

_ZN6google8protobuf2io19EpsCopyOutputStream11EnsureSpaceEPh.exit.i.i8: ; preds = %38, %_ZN6google8protobuf2io17CodedOutputStream8WriteTagEj.exit
  %.0.i.i.i9 = phi ptr [ %39, %38 ], [ %36, %_ZN6google8protobuf2io17CodedOutputStream8WriteTagEj.exit ]
  store ptr %.0.i.i.i9, ptr %5, align 8, !tbaa !20
  %40 = or disjoint i8 %10, 4
  store i8 %40, ptr %.0.i.i.i9, align 1, !tbaa !16
  br i1 %12, label %41, label %43

41:                                               ; preds = %_ZN6google8protobuf2io19EpsCopyOutputStream11EnsureSpaceEPh.exit.i.i8
  %42 = getelementptr inbounds nuw i8, ptr %.0.i.i.i9, i64 1
  br label %_ZN6google8protobuf2io17CodedOutputStream8WriteTagEj.exit14

43:                                               ; preds = %_ZN6google8protobuf2io19EpsCopyOutputStream11EnsureSpaceEPh.exit.i.i8
  %44 = or i8 %10, -124
  store i8 %44, ptr %.0.i.i.i9, align 1, !tbaa !16
  %45 = lshr i32 %4, 7
  %46 = trunc i32 %45 to i8
  %47 = getelementptr inbounds nuw i8, ptr %.0.i.i.i9, i64 1
  store i8 %46, ptr %47, align 1, !tbaa !16
  %48 = icmp ult i32 %4, 16384
  %49 = getelementptr inbounds nuw i8, ptr %.0.i.i.i9, i64 2
  br i1 %48, label %_ZN6google8protobuf2io17CodedOutputStream8WriteTagEj.exit14, label %.preheader.i.i10.preheader

.preheader.i.i10.preheader:                       ; preds = %43
  %scevgep = getelementptr i8, ptr %.0.i.i.i9, i64 1
  %load_initial = load i8, ptr %scevgep, align 1
  br label %.preheader.i.i10

.preheader.i.i10:                                 ; preds = %.preheader.i.i10.preheader, %.preheader.i.i10
  %store_forwarded = phi i8 [ %load_initial, %.preheader.i.i10.preheader ], [ %53, %.preheader.i.i10 ]
  %.018.i.i.i.i11 = phi i32 [ %45, %.preheader.i.i10.preheader ], [ %52, %.preheader.i.i10 ]
  %.0.i.i.i.i12 = phi ptr [ %49, %.preheader.i.i10.preheader ], [ %54, %.preheader.i.i10 ]
  %50 = getelementptr inbounds i8, ptr %.0.i.i.i.i12, i64 -1
  %51 = or i8 %store_forwarded, -128
  store i8 %51, ptr %50, align 1, !tbaa !16
  %52 = lshr i32 %.018.i.i.i.i11, 7
  %53 = trunc i32 %52 to i8
  store i8 %53, ptr %.0.i.i.i.i12, align 1, !tbaa !16
  %54 = getelementptr inbounds nuw i8, ptr %.0.i.i.i.i12, i64 1
  %55 = icmp samesign ugt i32 %.018.i.i.i.i11, 16383
  br i1 %55, label %.preheader.i.i10, label %_ZN6google8protobuf2io17CodedOutputStream8WriteTagEj.exit14, !llvm.loop !26

_ZN6google8protobuf2io17CodedOutputStream8WriteTagEj.exit14: ; preds = %.preheader.i.i10, %41, %43
  %.019.i.i.i.i13 = phi ptr [ %42, %41 ], [ %49, %43 ], [ %54, %.preheader.i.i10 ]
  store ptr %.019.i.i.i.i13, ptr %5, align 8, !tbaa !20
  ret void
}